; Function Attrs: null_pointer_is_valid sspstrong uwtable
define internal void @uds_uat_routine_ids_address_tostr_cb(ptr noundef readonly captures(none) %0, ptr noundef writeonly captures(none) initializes((0, 8)) %1, ptr noundef writeonly captures(none) initializes((0, 4)) %2, ptr readnone captures(none) %3, ptr readnone captures(none) %4) #0 {
  %6 = load i32, ptr %0, align 8
  %7 = tail call noalias ptr (ptr, ptr, ...) @wmem_strdup_printf(ptr noundef null, ptr noundef nonnull @.str.853, i32 noundef %6)
  store ptr %7, ptr %1, align 8
  %8 = tail call i64 @strlen(ptr noundef %7) #12
  %9 = trunc i64 %8 to i32
  store i32 %9, ptr %2, align 4
  ret void
}